; ModuleID = '7/64.c'
source_filename = "7/64.c"
target datalayout = "e-m:e-p270:32:32-p271:32:32-p272:64:64-i64:64-f80:128-n8:16:32:64-S128"
target triple = "x86_64-pc-linux-gnu"

@.str = private unnamed_addr constant [3 x i8] c"%s\00", align 1
@.str.1 = private unnamed_addr constant [5 x i8] c"%s%s\00", align 1

; Function Attrs: noinline nounwind uwtable
define dso_local i32 @main() #0 {
  %1 = alloca i32, align 4
  %2 = alloca [100 x i8], align 16
  %3 = alloca i32, align 4
  %4 = alloca i32, align 4
  %5 = alloca i32, align 4
  %6 = alloca i32, align 4
  %7 = alloca i32, align 4
  %8 = alloca i32, align 4
  %9 = alloca i32, align 4
  %10 = alloca [100 x i8], align 16
  %11 = alloca [100 x i8], align 16
  store i32 0, i32* %1, align 4
  %12 = getelementptr inbounds [100 x i8], [100 x i8]* %2, i64 0, i64 0
  %13 = call i32 (i8*, ...) @__isoc99_scanf(i8* getelementptr inbounds ([3 x i8], [3 x i8]* @.str, i64 0, i64 0), i8* %12)
  %14 = getelementptr inbounds [100 x i8], [100 x i8]* %10, i64 0, i64 0
  %15 = getelementptr inbounds [100 x i8], [100 x i8]* %11, i64 0, i64 0
  %16 = call i32 (i8*, ...) @__isoc99_scanf(i8* getelementptr inbounds ([5 x i8], [5 x i8]* @.str.1, i64 0, i64 0), i8* %14, i8* %15)
  %17 = getelementptr inbounds [100 x i8], [100 x i8]* %2, i64 0, i64 0
  %18 = call i64 @strlen(i8* %17) #3
  %19 = trunc i64 %18 to i32
  store i32 %19, i32* %7, align 4
  %20 = getelementptr inbounds [100 x i8], [100 x i8]* %10, i64 0, i64 0
  %21 = call i64 @strlen(i8* %20) #3
  %22 = trunc i64 %21 to i32
  store i32 %22, i32* %8, align 4
  %23 = getelementptr inbounds [100 x i8], [100 x i8]* %10, i64 0, i64 0
  %24 = call i64 @strlen(i8* %23) #3
  %25 = trunc i64 %24 to i32
  store i32 %25, i32* %9, align 4
  store i32 0, i32* %3, align 4
  br label %26

26:                                               ; preds = %90, %0
  %27 = load i32, i32* %3, align 4
  %28 = load i32, i32* %7, align 4
  %29 = icmp slt i32 %27, %28
  br i1 %29, label %30, label %93

30:                                               ; preds = %26
  store i32 0, i32* %4, align 4
  br label %31

31:                                               ; preds = %84, %30
  %32 = load i32, i32* %4, align 4
  %33 = load i32, i32* %9, align 4
  %34 = icmp slt i32 %32, %33
  br i1 %34, label %35, label %89

35:                                               ; preds = %31
  %36 = load i32, i32* %3, align 4
  %37 = sext i32 %36 to i64
  %38 = getelementptr inbounds [100 x i8], [100 x i8]* %2, i64 0, i64 %37
  %39 = load i8, i8* %38, align 1
  %40 = sext i8 %39 to i32
  %41 = load i32, i32* %4, align 4
  %42 = sext i32 %41 to i64
  %43 = getelementptr inbounds [100 x i8], [100 x i8]* %10, i64 0, i64 %42
  %44 = load i8, i8* %43, align 1
  %45 = sext i8 %44 to i32
  %46 = icmp ne i32 %40, %45
  br i1 %46, label %47, label %48

47:                                               ; preds = %35
  br label %89

48:                                               ; preds = %35
  %49 = load i32, i32* %4, align 4
  %50 = load i32, i32* %9, align 4
  %51 = sub nsw i32 %50, 1
  %52 = icmp eq i32 %49, %51
  br i1 %52, label %53, label %76

53:                                               ; preds = %48
  %54 = load i32, i32* %3, align 4
  %55 = load i32, i32* %9, align 4
  %56 = sub nsw i32 %54, %55
  %57 = add nsw i32 %56, 1
  store i32 %57, i32* %5, align 4
  store i32 0, i32* %6, align 4
  br label %58

58:                                               ; preds = %70, %53
  %59 = load i32, i32* %6, align 4
  %60 = load i32, i32* %9, align 4
  %61 = icmp slt i32 %59, %60
  br i1 %61, label %62, label %75

62:                                               ; preds = %58
  %63 = load i32, i32* %6, align 4
  %64 = sext i32 %63 to i64
  %65 = getelementptr inbounds [100 x i8], [100 x i8]* %11, i64 0, i64 %64
  %66 = load i8, i8* %65, align 1
  %67 = load i32, i32* %5, align 4
  %68 = sext i32 %67 to i64
  %69 = getelementptr inbounds [100 x i8], [100 x i8]* %2, i64 0, i64 %68
  store i8 %66, i8* %69, align 1
  br label %70

70:                                               ; preds = %62
  %71 = load i32, i32* %6, align 4
  %72 = add nsw i32 %71, 1
  store i32 %72, i32* %6, align 4
  %73 = load i32, i32* %5, align 4
  %74 = add nsw i32 %73, 1
  store i32 %74, i32* %5, align 4
  br label %58

75:                                               ; preds = %58
  br label %76

76:                                               ; preds = %75, %48
  %77 = load i32, i32* %4, align 4
  %78 = load i32, i32* %9, align 4
  %79 = sub nsw i32 %78, 1
  %80 = icmp eq i32 %77, %79
  br i1 %80, label %81, label %83

81:                                               ; preds = %76
  %82 = load i32, i32* %7, align 4
  store i32 %82, i32* %3, align 4
  br label %83

83:                                               ; preds = %81, %76
  br label %84

84:                                               ; preds = %83
  %85 = load i32, i32* %4, align 4
  %86 = add nsw i32 %85, 1
  store i32 %86, i32* %4, align 4
  %87 = load i32, i32* %3, align 4
  %88 = add nsw i32 %87, 1
  store i32 %88, i32* %3, align 4
  br label %31

89:                                               ; preds = %47, %31
  br label %90

90:                                               ; preds = %89
  %91 = load i32, i32* %3, align 4
  %92 = add nsw i32 %91, 1
  store i32 %92, i32* %3, align 4
  br label %26

93:                                               ; preds = %26
  %94 = getelementptr inbounds [100 x i8], [100 x i8]* %2, i64 0, i64 0
  %95 = call i32 (i8*, ...) @printf(i8* getelementptr inbounds ([3 x i8], [3 x i8]* @.str, i64 0, i64 0), i8* %94)
  ret i32 0
}

declare dso_local i32 @__isoc99_scanf(i8*, ...) #1

; Function Attrs: nounwind readonly
declare dso_local i64 @strlen(i8*) #2

declare dso_local i32 @printf(i8*, ...) #1


!llvm.module.flags = !{!0}
!llvm.ident = !{!1}

!0 = !{i32 1, !"wchar_size", i32 4}
!1 = !{!"clang version 10.0.0-4ubuntu1 "}
